; Function Attrs: nounwind uwtable
define dso_local ptr @construct_empty_expanded_array(i32 noundef %0, ptr noundef %1, ptr noundef %2) local_unnamed_addr #0 {
  %4 = tail call ptr @palloc0(i64 noundef 16) #18
  store i32 64, ptr %4, align 4
  %5 = getelementptr inbounds nuw i8, ptr %4, i64 4
  store i32 0, ptr %5, align 4
  %6 = getelementptr inbounds nuw i8, ptr %4, i64 8
  store i32 0, ptr %6, align 4
  %7 = getelementptr inbounds nuw i8, ptr %4, i64 12
  store i32 %0, ptr %7, align 4
  %8 = ptrtoint ptr %4 to i64
  %9 = tail call i64 @expand_array(i64 noundef %8, ptr noundef %1, ptr noundef %2) #18
  tail call void @pfree(ptr noundef nonnull %4) #18
  %10 = tail call ptr @DatumGetEOHP(i64 noundef %9) #18
  ret ptr %10
}